target datalayout = "e-m:e-p270:32:32-p271:32:32-p272:64:64-i64:64-i128:128-f80:128-n8:16:32:64-S128"
target triple = "x86_64-pc-linux-gnu"

%struct._generic_SUNAdaptController_Ops = type { ptr, ptr, ptr, ptr, ptr, ptr, ptr, ptr, ptr, ptr, ptr }
%struct._generic_SUNAdaptController = type { ptr, ptr, ptr }

; Function Attrs: nounwind uwtable
define i32 @SUNAdaptController_EstimateStep(ptr noundef %0, double noundef %1, i32 noundef %2, double noundef %3, ptr noundef %4) #0 {
  %6 = alloca i32, align 4
  %7 = alloca ptr, align 8
  %8 = alloca double, align 8
  %9 = alloca i32, align 4
  %10 = alloca double, align 8
  %11 = alloca ptr, align 8
  %12 = alloca i32, align 4
  %13 = alloca i32, align 4
  %14 = alloca ptr, align 8
  store ptr %0, ptr %7, align 8, !tbaa !8
  store double %1, ptr %8, align 8, !tbaa !28
  store i32 %2, ptr %9, align 4, !tbaa !30
  store double %3, ptr %10, align 8, !tbaa !28
  store ptr %4, ptr %11, align 8, !tbaa !32
  call void @llvm.lifetime.start.p0(i64 4, ptr %12) #4
  store i32 0, ptr %12, align 4, !tbaa !30
  %15 = load ptr, ptr %7, align 8, !tbaa !8
  %16 = icmp eq ptr %15, null
  br i1 %16, label %17, label %18

17:                                               ; preds = %5
  store i32 -9999, ptr %6, align 4
  store i32 1, ptr %13, align 4
  br label %44

18:                                               ; preds = %5
  call void @llvm.lifetime.start.p0(i64 8, ptr %14) #4
  %19 = load ptr, ptr %7, align 8, !tbaa !8
  %20 = getelementptr inbounds nuw %struct._generic_SUNAdaptController, ptr %19, i32 0, i32 2
  %21 = load ptr, ptr %20, align 8, !tbaa !27
  store ptr %21, ptr %14, align 8, !tbaa !3
  %22 = load double, ptr %8, align 8, !tbaa !28
  %23 = load ptr, ptr %11, align 8, !tbaa !32
  store double %22, ptr %23, align 8, !tbaa !28
  %24 = load ptr, ptr %7, align 8, !tbaa !8
  %25 = getelementptr inbounds nuw %struct._generic_SUNAdaptController, ptr %24, i32 0, i32 1
  %26 = load ptr, ptr %25, align 8, !tbaa !24
  %27 = getelementptr inbounds nuw %struct._generic_SUNAdaptController_Ops, ptr %26, i32 0, i32 1
  %28 = load ptr, ptr %27, align 8, !tbaa !16
  %29 = icmp ne ptr %28, null
  br i1 %29, label %30, label %42

30:                                               ; preds = %18
  %31 = load ptr, ptr %7, align 8, !tbaa !8
  %32 = getelementptr inbounds nuw %struct._generic_SUNAdaptController, ptr %31, i32 0, i32 1
  %33 = load ptr, ptr %32, align 8, !tbaa !24
  %34 = getelementptr inbounds nuw %struct._generic_SUNAdaptController_Ops, ptr %33, i32 0, i32 1
  %35 = load ptr, ptr %34, align 8, !tbaa !16
  %36 = load ptr, ptr %7, align 8, !tbaa !8
  %37 = load double, ptr %8, align 8, !tbaa !28
  %38 = load i32, ptr %9, align 4, !tbaa !30
  %39 = load double, ptr %10, align 8, !tbaa !28
  %40 = load ptr, ptr %11, align 8, !tbaa !32
  %41 = call i32 %35(ptr noundef %36, double noundef %37, i32 noundef %38, double noundef %39, ptr noundef %40)
  store i32 %41, ptr %12, align 4, !tbaa !30
  br label %42

42:                                               ; preds = %30, %18
  %43 = load i32, ptr %12, align 4, !tbaa !30
  store i32 %43, ptr %6, align 4
  store i32 1, ptr %13, align 4
  call void @llvm.lifetime.end.p0(i64 8, ptr %14) #4
  br label %44

44:                                               ; preds = %42, %17
  call void @llvm.lifetime.end.p0(i64 4, ptr %12) #4
  %45 = load i32, ptr %6, align 4
  ret i32 %45
}